; Function Attrs: nounwind uwtable
define ptr @agget(ptr noundef %0, ptr noundef %1) local_unnamed_addr #0 {
  %3 = alloca %struct.Agsym_s, align 8
  %4 = load ptr, ptr @AgDataRecName, align 8, !tbaa !15
  %5 = tail call ptr @aggetrec(ptr noundef %0, ptr noundef %4, i32 noundef 0) #12
  %.not.i = icmp eq ptr %5, null
  br i1 %.not.i, label %agattrsym.exit.thread, label %agattrsym.exit

agattrsym.exit:                                   ; preds = %2
  %6 = getelementptr inbounds nuw i8, ptr %5, i64 16
  %7 = load ptr, ptr %6, align 8, !tbaa !16
  call void @llvm.lifetime.start.p0(i64 40, ptr nonnull %3) #12
  %8 = getelementptr inbounds nuw i8, ptr %3, i64 16
  store ptr %1, ptr %8, align 8, !tbaa !8
  %9 = load ptr, ptr %7, align 8, !tbaa !25
  %10 = call ptr %9(ptr noundef nonnull %7, ptr noundef nonnull %3, i32 noundef 4) #12
  call void @llvm.lifetime.end.p0(i64 40, ptr nonnull %3) #12
  %11 = icmp eq ptr %10, null
  br i1 %11, label %agattrsym.exit.thread, label %12

12:                                               ; preds = %agattrsym.exit
  %13 = load ptr, ptr @AgDataRecName, align 8, !tbaa !15
  %14 = call ptr @aggetrec(ptr noundef %0, ptr noundef %13, i32 noundef 0) #12
  %15 = getelementptr inbounds nuw i8, ptr %14, i64 24
  %16 = load ptr, ptr %15, align 8, !tbaa !35
  %17 = getelementptr inbounds nuw i8, ptr %10, i64 32
  %18 = load i32, ptr %17, align 8, !tbaa !36
  %19 = sext i32 %18 to i64
  %20 = getelementptr inbounds ptr, ptr %16, i64 %19
  %21 = load ptr, ptr %20, align 8, !tbaa !15
  br label %agattrsym.exit.thread

agattrsym.exit.thread:                            ; preds = %2, %agattrsym.exit, %12
  %.0 = phi ptr [ %21, %12 ], [ null, %agattrsym.exit ], [ null, %2 ]
  ret ptr %.0
}